target datalayout = "e-m:e-p270:32:32-p271:32:32-p272:64:64-i64:64-i128:128-f80:128-n8:16:32:64-S128"
target triple = "x86_64-pc-linux-gnu"

%struct.nghttp2_session = type { %struct.nghttp2_map, %struct.nghttp2_stream, %struct.nghttp2_outbound_queue, %struct.nghttp2_outbound_queue, %struct.nghttp2_outbound_queue, [8 x %struct.anon], %struct.nghttp2_active_outbound_item, %struct.nghttp2_inbound_frame, %struct.nghttp2_hd_deflater, %struct.nghttp2_hd_inflater, %struct.nghttp2_session_callbacks, %struct.nghttp2_mem, ptr, ptr, ptr, ptr, ptr, ptr, i64, i64, i64, i64, i64, i64, i64, i64, i64, i64, i64, i64, i32, i32, i32, i32, i32, i32, i32, i32, i32, i32, i32, i32, i8, %struct.nghttp2_settings_storage, %struct.nghttp2_settings_storage, i32, i32, i32, i8, i8, i8, i8, i8, i8, i8, [32 x i8] }
%struct.nghttp2_map = type { ptr, ptr, i64, i32, i32 }
%struct.nghttp2_stream = type { %struct.nghttp2_pq_entry, %struct.nghttp2_pq, i64, i64, i64, i64, i64, i64, ptr, ptr, ptr, ptr, ptr, ptr, ptr, ptr, i64, i32, i32, i32, i32, i32, i32, i32, i32, i32, i32, i16, i32, i8, i8, i8, i8, i8, i8 }
%struct.nghttp2_pq_entry = type { i64 }
%struct.nghttp2_pq = type { ptr, ptr, i64, i64, ptr }
%struct.nghttp2_outbound_queue = type { ptr, ptr, i64 }
%struct.anon = type { %struct.nghttp2_pq }
%struct.nghttp2_active_outbound_item = type { ptr, %struct.nghttp2_bufs, i32 }
%struct.nghttp2_bufs = type { ptr, ptr, ptr, i64, i64, i64, i64, i64 }
%struct.nghttp2_inbound_frame = type { %union.nghttp2_frame, %union.nghttp2_ext_frame_payload, ptr, %struct.nghttp2_buf, %struct.nghttp2_buf, ptr, i64, i64, i64, i64, i32, [32 x i8] }
%union.nghttp2_frame = type { %struct.nghttp2_headers }
%struct.nghttp2_headers = type { %struct.nghttp2_frame_hd, i64, %struct.nghttp2_priority_spec, ptr, i64, i32 }
%struct.nghttp2_frame_hd = type { i64, i32, i8, i8, i8 }
%struct.nghttp2_priority_spec = type { i32, i32, i8 }
%union.nghttp2_ext_frame_payload = type { %struct.nghttp2_ext_altsvc }
%struct.nghttp2_ext_altsvc = type { ptr, i64, ptr, i64 }
%struct.nghttp2_buf = type { ptr, ptr, ptr, ptr, ptr }
%struct.nghttp2_hd_deflater = type { %struct.nghttp2_hd_context, %struct.nghttp2_hd_map, i64, i64, i8 }
%struct.nghttp2_hd_context = type { %struct.nghttp2_hd_ringbuf, ptr, i64, i64, i32, i8 }
%struct.nghttp2_hd_ringbuf = type { ptr, i64, i64, i64 }
%struct.nghttp2_hd_map = type { [128 x ptr] }
%struct.nghttp2_hd_inflater = type { %struct.nghttp2_hd_context, %struct.nghttp2_hd_huff_decode_context, %struct.nghttp2_buf, %struct.nghttp2_buf, ptr, ptr, ptr, ptr, i64, i64, i64, i64, i64, i32, i32, i8, i8, i8 }
%struct.nghttp2_hd_huff_decode_context = type { i16 }
%struct.nghttp2_session_callbacks = type { ptr, ptr, ptr, ptr, ptr, ptr, ptr, ptr, ptr, ptr, ptr, ptr, ptr, ptr, ptr, ptr, ptr, ptr, ptr, ptr, ptr, ptr, ptr }
%struct.nghttp2_mem = type { ptr, ptr, ptr, ptr, ptr }
%struct.nghttp2_settings_storage = type { i32, i32, i32, i32, i32, i32, i32, i32 }

; Function Attrs: nounwind uwtable
define internal i32 @session_is_new_peer_stream_id(ptr noundef %0, i32 noundef %1) #0 {
  %3 = alloca ptr, align 8
  %4 = alloca i32, align 4
  store ptr %0, ptr %3, align 8, !tbaa !8
  store i32 %1, ptr %4, align 4, !tbaa !4
  %5 = load i32, ptr %4, align 4, !tbaa !4
  %6 = icmp ne i32 %5, 0
  br i1 %6, label %7, label %18

7:                                                ; preds = %2
  %8 = load ptr, ptr %3, align 8, !tbaa !8
  %9 = load i32, ptr %4, align 4, !tbaa !4
  %10 = call i32 @nghttp2_session_is_my_stream_id(ptr noundef %8, i32 noundef %9)
  %11 = icmp ne i32 %10, 0
  br i1 %11, label %18, label %12

12:                                               ; preds = %7
  %13 = load ptr, ptr %3, align 8, !tbaa !8
  %14 = getelementptr inbounds nuw %struct.nghttp2_session, ptr %13, i32 0, i32 32
  %15 = load i32, ptr %14, align 8, !tbaa !144
  %16 = load i32, ptr %4, align 4, !tbaa !4
  %17 = icmp slt i32 %15, %16
  br label %18

18:                                               ; preds = %12, %7, %2
  %19 = phi i1 [ false, %7 ], [ false, %2 ], [ %17, %12 ]
  %20 = zext i1 %19 to i32
  ret i32 %20
}

; Function Attrs: nounwind uwtable
define dso_local i32 @nghttp2_session_is_my_stream_id(ptr noundef %0, i32 noundef %1) #0 {
  %3 = alloca i32, align 4
  %4 = alloca ptr, align 8
  %5 = alloca i32, align 4
  %6 = alloca i32, align 4
  %7 = alloca i32, align 4
  store ptr %0, ptr %4, align 8, !tbaa !8
  store i32 %1, ptr %5, align 4, !tbaa !4
  call void @llvm.lifetime.start.p0(i64 4, ptr %6) #9
  %8 = load i32, ptr %5, align 4, !tbaa !4
  %9 = icmp eq i32 %8, 0
  br i1 %9, label %10, label %11

10:                                               ; preds = %2
  store i32 0, ptr %3, align 4
  store i32 1, ptr %7, align 4
  br label %26

11:                                               ; preds = %2
  %12 = load i32, ptr %5, align 4, !tbaa !4
  %13 = and i32 %12, 1
  store i32 %13, ptr %6, align 4, !tbaa !4
  %14 = load ptr, ptr %4, align 8, !tbaa !8
  %15 = getelementptr inbounds nuw %struct.nghttp2_session, ptr %14, i32 0, i32 52
  %16 = load i8, ptr %15, align 4, !tbaa !45
  %17 = icmp ne i8 %16, 0
  br i1 %17, label %18, label %22

18:                                               ; preds = %11
  %19 = load i32, ptr %6, align 4, !tbaa !4
  %20 = icmp eq i32 %19, 0
  %21 = zext i1 %20 to i32
  store i32 %21, ptr %3, align 4
  store i32 1, ptr %7, align 4
  br label %26

22:                                               ; preds = %11
  %23 = load i32, ptr %6, align 4, !tbaa !4
  %24 = icmp eq i32 %23, 1
  %25 = zext i1 %24 to i32
  store i32 %25, ptr %3, align 4
  store i32 1, ptr %7, align 4
  br label %26

26:                                               ; preds = %22, %18, %10
  call void @llvm.lifetime.end.p0(i64 4, ptr %6) #9
  %27 = load i32, ptr %3, align 4
  ret i32 %27
}

; Function Attrs: nounwind uwtable
define internal i32 @session_detect_idle_stream(ptr noundef %0, i32 noundef %1) #0 {
  %3 = alloca i32, align 4
  %4 = alloca ptr, align 8
  %5 = alloca i32, align 4
  store ptr %0, ptr %4, align 8, !tbaa !8
  store i32 %1, ptr %5, align 4, !tbaa !4
  %6 = load ptr, ptr %4, align 8, !tbaa !8
  %7 = load i32, ptr %5, align 4, !tbaa !4
  %8 = call i32 @nghttp2_session_is_my_stream_id(ptr noundef %6, i32 noundef %7)
  %9 = icmp ne i32 %8, 0
  br i1 %9, label %10, label %18

10:                                               ; preds = %2
  %11 = load ptr, ptr %4, align 8, !tbaa !8
  %12 = getelementptr inbounds nuw %struct.nghttp2_session, ptr %11, i32 0, i32 31
  %13 = load i32, ptr %12, align 4, !tbaa !128
  %14 = load i32, ptr %5, align 4, !tbaa !4
  %15 = icmp slt i32 %13, %14
  br i1 %15, label %16, label %17

16:                                               ; preds = %10
  store i32 1, ptr %3, align 4
  br label %25

17:                                               ; preds = %10
  store i32 0, ptr %3, align 4
  br label %25

18:                                               ; preds = %2
  %19 = load ptr, ptr %4, align 8, !tbaa !8
  %20 = load i32, ptr %5, align 4, !tbaa !4
  %21 = call i32 @session_is_new_peer_stream_id(ptr noundef %19, i32 noundef %20)
  %22 = icmp ne i32 %21, 0
  br i1 %22, label %23, label %24

23:                                               ; preds = %18
  store i32 1, ptr %3, align 4
  br label %25

24:                                               ; preds = %18
  store i32 0, ptr %3, align 4
  br label %25

25:                                               ; preds = %24, %23, %17, %16
  %26 = load i32, ptr %3, align 4
  ret i32 %26
}

; Function Attrs: nounwind uwtable
define dso_local ptr @nghttp2_session_get_stream_raw(ptr noundef %0, i32 noundef %1) #0 {
  %3 = alloca ptr, align 8
  %4 = alloca i32, align 4
  store ptr %0, ptr %3, align 8, !tbaa !8
  store i32 %1, ptr %4, align 4, !tbaa !4
  %5 = load ptr, ptr %3, align 8, !tbaa !8
  %6 = getelementptr inbounds nuw %struct.nghttp2_session, ptr %5, i32 0, i32 0
  %7 = load i32, ptr %4, align 4, !tbaa !4
  %8 = call ptr @nghttp2_map_find(ptr noundef %6, i32 noundef %7)
  ret ptr %8
}

; Function Attrs: nounwind uwtable
define dso_local i32 @nghttp2_session_reprioritize_stream(ptr noundef %0, ptr noundef %1, ptr noundef %2) #0 {
  %4 = alloca i32, align 4
  %5 = alloca ptr, align 8
  %6 = alloca ptr, align 8
  %7 = alloca ptr, align 8
  %8 = alloca i32, align 4
  %9 = alloca ptr, align 8
  %10 = alloca %struct.nghttp2_priority_spec, align 4
  %11 = alloca ptr, align 8
  %12 = alloca i32, align 4
  store ptr %0, ptr %5, align 8, !tbaa !8
  store ptr %1, ptr %6, align 8, !tbaa !46
  store ptr %2, ptr %7, align 8, !tbaa !53
  call void @llvm.lifetime.start.p0(i64 4, ptr %8) #9
  call void @llvm.lifetime.start.p0(i64 8, ptr %9) #9
  store ptr null, ptr %9, align 8, !tbaa !46
  call void @llvm.lifetime.start.p0(i64 12, ptr %10) #9
  call void @llvm.lifetime.start.p0(i64 8, ptr %11) #9
  %13 = load ptr, ptr %7, align 8, !tbaa !53
  store ptr %13, ptr %11, align 8, !tbaa !53
  %14 = load ptr, ptr %6, align 8, !tbaa !46
  %15 = call i32 @nghttp2_stream_in_dep_tree(ptr noundef %14)
  %16 = icmp ne i32 %15, 0
  br i1 %16, label %18, label %17

17:                                               ; preds = %3
  store i32 0, ptr %4, align 4
  store i32 1, ptr %12, align 4
  br label %128

18:                                               ; preds = %3
  %19 = load ptr, ptr %11, align 8, !tbaa !53
  %20 = getelementptr inbounds nuw %struct.nghttp2_priority_spec, ptr %19, i32 0, i32 0
  %21 = load i32, ptr %20, align 4, !tbaa !122
  %22 = icmp ne i32 %21, 0
  br i1 %22, label %23, label %58

23:                                               ; preds = %18
  %24 = load ptr, ptr %5, align 8, !tbaa !8
  %25 = load ptr, ptr %11, align 8, !tbaa !53
  %26 = getelementptr inbounds nuw %struct.nghttp2_priority_spec, ptr %25, i32 0, i32 0
  %27 = load i32, ptr %26, align 4, !tbaa !122
  %28 = call ptr @nghttp2_session_get_stream_raw(ptr noundef %24, i32 noundef %27)
  store ptr %28, ptr %9, align 8, !tbaa !46
  %29 = load ptr, ptr %9, align 8, !tbaa !46
  %30 = icmp ne ptr %29, null
  br i1 %30, label %48, label %31

31:                                               ; preds = %23
  %32 = load ptr, ptr %5, align 8, !tbaa !8
  %33 = load ptr, ptr %11, align 8, !tbaa !53
  %34 = getelementptr inbounds nuw %struct.nghttp2_priority_spec, ptr %33, i32 0, i32 0
  %35 = load i32, ptr %34, align 4, !tbaa !122
  %36 = call i32 @session_detect_idle_stream(ptr noundef %32, i32 noundef %35)
  %37 = icmp ne i32 %36, 0
  br i1 %37, label %38, label %48

38:                                               ; preds = %31
  call void @nghttp2_priority_spec_default_init(ptr noundef %10)
  %39 = load ptr, ptr %5, align 8, !tbaa !8
  %40 = load ptr, ptr %11, align 8, !tbaa !53
  %41 = getelementptr inbounds nuw %struct.nghttp2_priority_spec, ptr %40, i32 0, i32 0
  %42 = load i32, ptr %41, align 4, !tbaa !122
  %43 = call ptr @nghttp2_session_open_stream(ptr noundef %39, i32 noundef %42, i8 noundef zeroext 0, ptr noundef %10, i32 noundef 5, ptr noundef null)
  store ptr %43, ptr %9, align 8, !tbaa !46
  %44 = load ptr, ptr %9, align 8, !tbaa !46
  %45 = icmp eq ptr %44, null
  br i1 %45, label %46, label %47

46:                                               ; preds = %38
  store i32 -901, ptr %4, align 4
  store i32 1, ptr %12, align 4
  br label %128

47:                                               ; preds = %38
  br label %57

48:                                               ; preds = %31, %23
  %49 = load ptr, ptr %9, align 8, !tbaa !46
  %50 = icmp ne ptr %49, null
  br i1 %50, label %51, label %55

51:                                               ; preds = %48
  %52 = load ptr, ptr %9, align 8, !tbaa !46
  %53 = call i32 @nghttp2_stream_in_dep_tree(ptr noundef %52)
  %54 = icmp ne i32 %53, 0
  br i1 %54, label %56, label %55

55:                                               ; preds = %51, %48
  call void @nghttp2_priority_spec_default_init(ptr noundef %10)
  store ptr %10, ptr %11, align 8, !tbaa !53
  br label %56

56:                                               ; preds = %55, %51
  br label %57

57:                                               ; preds = %56, %47
  br label %58

58:                                               ; preds = %57, %18
  %59 = load ptr, ptr %11, align 8, !tbaa !53
  %60 = getelementptr inbounds nuw %struct.nghttp2_priority_spec, ptr %59, i32 0, i32 0
  %61 = load i32, ptr %60, align 4, !tbaa !122
  %62 = icmp eq i32 %61, 0
  br i1 %62, label %63, label %66

63:                                               ; preds = %58
  %64 = load ptr, ptr %5, align 8, !tbaa !8
  %65 = getelementptr inbounds nuw %struct.nghttp2_session, ptr %64, i32 0, i32 1
  store ptr %65, ptr %9, align 8, !tbaa !46
  br label %87

66:                                               ; preds = %58
  %67 = load ptr, ptr %9, align 8, !tbaa !46
  %68 = load ptr, ptr %6, align 8, !tbaa !46
  %69 = call i32 @nghttp2_stream_dep_find_ancestor(ptr noundef %67, ptr noundef %68)
  %70 = icmp ne i32 %69, 0
  br i1 %70, label %71, label %86

71:                                               ; preds = %66
  br label %72

72:                                               ; preds = %71
  br label %73

73:                                               ; preds = %72
  br label %74

74:                                               ; preds = %73
  %75 = load ptr, ptr %9, align 8, !tbaa !46
  call void @nghttp2_stream_dep_remove_subtree(ptr noundef %75)
  %76 = load ptr, ptr %6, align 8, !tbaa !46
  %77 = getelementptr inbounds nuw %struct.nghttp2_stream, ptr %76, i32 0, i32 8
  %78 = load ptr, ptr %77, align 8, !tbaa !124
  %79 = load ptr, ptr %9, align 8, !tbaa !46
  %80 = call i32 @nghttp2_stream_dep_add_subtree(ptr noundef %78, ptr noundef %79)
  store i32 %80, ptr %8, align 4, !tbaa !4
  %81 = load i32, ptr %8, align 4, !tbaa !4
  %82 = icmp ne i32 %81, 0
  br i1 %82, label %83, label %85

83:                                               ; preds = %74
  %84 = load i32, ptr %8, align 4, !tbaa !4
  store i32 %84, ptr %4, align 4
  store i32 1, ptr %12, align 4
  br label %128

85:                                               ; preds = %74
  br label %86

86:                                               ; preds = %85, %66
  br label %87

87:                                               ; preds = %86, %63
  %88 = load ptr, ptr %9, align 8, !tbaa !46
  %89 = load ptr, ptr %6, align 8, !tbaa !46
  %90 = getelementptr inbounds nuw %struct.nghttp2_stream, ptr %89, i32 0, i32 8
  %91 = load ptr, ptr %90, align 8, !tbaa !124
  %92 = icmp eq ptr %88, %91
  br i1 %92, label %93, label %103

93:                                               ; preds = %87
  %94 = load ptr, ptr %11, align 8, !tbaa !53
  %95 = getelementptr inbounds nuw %struct.nghttp2_priority_spec, ptr %94, i32 0, i32 2
  %96 = load i8, ptr %95, align 4, !tbaa !125
  %97 = icmp ne i8 %96, 0
  br i1 %97, label %103, label %98

98:                                               ; preds = %93
  %99 = load ptr, ptr %6, align 8, !tbaa !46
  %100 = load ptr, ptr %11, align 8, !tbaa !53
  %101 = getelementptr inbounds nuw %struct.nghttp2_priority_spec, ptr %100, i32 0, i32 1
  %102 = load i32, ptr %101, align 4, !tbaa !126
  call void @nghttp2_stream_change_weight(ptr noundef %99, i32 noundef %102)
  store i32 0, ptr %4, align 4
  store i32 1, ptr %12, align 4
  br label %128

103:                                              ; preds = %93, %87
  %104 = load ptr, ptr %6, align 8, !tbaa !46
  call void @nghttp2_stream_dep_remove_subtree(ptr noundef %104)
  %105 = load ptr, ptr %11, align 8, !tbaa !53
  %106 = getelementptr inbounds nuw %struct.nghttp2_priority_spec, ptr %105, i32 0, i32 1
  %107 = load i32, ptr %106, align 4, !tbaa !126
  %108 = load ptr, ptr %6, align 8, !tbaa !46
  %109 = getelementptr inbounds nuw %struct.nghttp2_stream, ptr %108, i32 0, i32 23
  store i32 %107, ptr %109, align 8, !tbaa !127
  %110 = load ptr, ptr %11, align 8, !tbaa !53
  %111 = getelementptr inbounds nuw %struct.nghttp2_priority_spec, ptr %110, i32 0, i32 2
  %112 = load i8, ptr %111, align 4, !tbaa !125
  %113 = icmp ne i8 %112, 0
  br i1 %113, label %114, label %118

114:                                              ; preds = %103
  %115 = load ptr, ptr %9, align 8, !tbaa !46
  %116 = load ptr, ptr %6, align 8, !tbaa !46
  %117 = call i32 @nghttp2_stream_dep_insert_subtree(ptr noundef %115, ptr noundef %116)
  store i32 %117, ptr %8, align 4, !tbaa !4
  br label %122

118:                                              ; preds = %103
  %119 = load ptr, ptr %9, align 8, !tbaa !46
  %120 = load ptr, ptr %6, align 8, !tbaa !46
  %121 = call i32 @nghttp2_stream_dep_add_subtree(ptr noundef %119, ptr noundef %120)
  store i32 %121, ptr %8, align 4, !tbaa !4
  br label %122

122:                                              ; preds = %118, %114
  %123 = load i32, ptr %8, align 4, !tbaa !4
  %124 = icmp ne i32 %123, 0
  br i1 %124, label %125, label %127

125:                                              ; preds = %122
  %126 = load i32, ptr %8, align 4, !tbaa !4
  store i32 %126, ptr %4, align 4
  store i32 1, ptr %12, align 4
  br label %128

127:                                              ; preds = %122
  store i32 0, ptr %4, align 4
  store i32 1, ptr %12, align 4
  br label %128

128:                                              ; preds = %127, %125, %98, %83, %46, %17
  call void @llvm.lifetime.end.p0(i64 8, ptr %11) #9
  call void @llvm.lifetime.end.p0(i64 12, ptr %10) #9
  call void @llvm.lifetime.end.p0(i64 8, ptr %9) #9
  call void @llvm.lifetime.end.p0(i64 4, ptr %8) #9
  %129 = load i32, ptr %4, align 4
  ret i32 %129
}