; Function Attrs: nounwind uwtable
define dso_local i32 @nghttp2_session_reprioritize_stream(ptr noundef %0, ptr noundef %1, ptr noundef readonly captures(none) %2) local_unnamed_addr #1 {
  %4 = alloca %struct.nghttp2_priority_spec, align 4
  call void @llvm.lifetime.start.p0(i64 12, ptr nonnull %4) #20
  %5 = tail call i32 @nghttp2_stream_in_dep_tree(ptr noundef %1) #20
  %.not = icmp eq i32 %5, 0
  %.0.sroa.phi.sroa.gep = getelementptr inbounds nuw i8, ptr %2, i64 8
  %.0.sroa.phi.sroa.gep75 = getelementptr inbounds nuw i8, ptr %4, i64 8
  %.0.sroa.phi.sroa.gep79 = getelementptr inbounds nuw i8, ptr %2, i64 4
  %.0.sroa.phi.sroa.gep80 = getelementptr inbounds nuw i8, ptr %4, i64 4
  br i1 %.not, label %50, label %6

6:                                                ; preds = %3
  %7 = load i32, ptr %2, align 4, !tbaa !115
  %.not66 = icmp eq i32 %7, 0
  br i1 %.not66, label %.thread, label %8

8:                                                ; preds = %6
  %9 = tail call ptr @nghttp2_map_find(ptr noundef %0, i32 noundef %7) #20
  %.not67 = icmp eq ptr %9, null
  br i1 %.not67, label %10, label %.critedge

10:                                               ; preds = %8
  %11 = load i32, ptr %2, align 4, !tbaa !115
  %12 = icmp eq i32 %11, 0
  br i1 %12, label %session_detect_idle_stream.exit.thread, label %nghttp2_session_is_my_stream_id.exit.i

nghttp2_session_is_my_stream_id.exit.i:           ; preds = %10
  %13 = getelementptr inbounds nuw i8, ptr %0, i64 2844
  %14 = load i8, ptr %13, align 4, !tbaa !40
  %15 = trunc i32 %11 to i1
  %16 = icmp eq i8 %14, 0
  %.not.i = xor i1 %16, %15
  br i1 %.not.i, label %session_is_new_peer_stream_id.exit.i, label %session_detect_idle_stream.exit

session_is_new_peer_stream_id.exit.i:             ; preds = %nghttp2_session_is_my_stream_id.exit.i
  %17 = getelementptr inbounds nuw i8, ptr %0, i64 2720
  %18 = load i32, ptr %17, align 8, !tbaa !117
  %.fr.i = freeze i32 %18
  %.not13.i = icmp slt i32 %.fr.i, %11
  br i1 %.not13.i, label %session_detect_idle_stream.exit.thread85, label %session_detect_idle_stream.exit.thread

session_detect_idle_stream.exit:                  ; preds = %nghttp2_session_is_my_stream_id.exit.i
  %19 = getelementptr inbounds nuw i8, ptr %0, i64 2716
  %20 = load i32, ptr %19, align 4, !tbaa !118
  %.not96 = icmp slt i32 %20, %11
  br i1 %.not96, label %session_detect_idle_stream.exit.thread85, label %session_detect_idle_stream.exit.thread

session_detect_idle_stream.exit.thread85:         ; preds = %session_is_new_peer_stream_id.exit.i, %session_detect_idle_stream.exit
  call void @nghttp2_priority_spec_default_init(ptr noundef nonnull %4) #20
  %21 = load i32, ptr %2, align 4, !tbaa !115
  %22 = call ptr @nghttp2_session_open_stream(ptr noundef nonnull %0, i32 noundef %21, i8 noundef zeroext 0, ptr noundef nonnull %4, i32 noundef 5, ptr noundef null)
  %23 = icmp eq ptr %22, null
  br i1 %23, label %50, label %25

.critedge:                                        ; preds = %8
  %24 = tail call i32 @nghttp2_stream_in_dep_tree(ptr noundef nonnull %9) #20
  %.not69 = icmp eq i32 %24, 0
  br i1 %.not69, label %session_detect_idle_stream.exit.thread, label %25

session_detect_idle_stream.exit.thread:           ; preds = %session_is_new_peer_stream_id.exit.i, %10, %session_detect_idle_stream.exit, %.critedge
  call void @nghttp2_priority_spec_default_init(ptr noundef nonnull %4) #20
  br label %25

25:                                               ; preds = %session_detect_idle_stream.exit.thread85, %session_detect_idle_stream.exit.thread, %.critedge
  %.037.ph = phi ptr [ %22, %session_detect_idle_stream.exit.thread85 ], [ %9, %session_detect_idle_stream.exit.thread ], [ %9, %.critedge ]
  %.0.sroa.phi.sroa.phi.ph = phi ptr [ %.0.sroa.phi.sroa.gep, %session_detect_idle_stream.exit.thread85 ], [ %.0.sroa.phi.sroa.gep75, %session_detect_idle_stream.exit.thread ], [ %.0.sroa.phi.sroa.gep, %.critedge ]
  %.0.sroa.phi.sroa.phi78.ph = phi ptr [ %.0.sroa.phi.sroa.gep79, %session_detect_idle_stream.exit.thread85 ], [ %.0.sroa.phi.sroa.gep80, %session_detect_idle_stream.exit.thread ], [ %.0.sroa.phi.sroa.gep79, %.critedge ]
  %.0.sroa.phi.ph = phi ptr [ %2, %session_detect_idle_stream.exit.thread85 ], [ %4, %session_detect_idle_stream.exit.thread ], [ %2, %.critedge ]
  %.pr = load i32, ptr %.0.sroa.phi.ph, align 4, !tbaa !115
  %26 = icmp eq i32 %.pr, 0
  br i1 %26, label %.thread, label %28

.thread:                                          ; preds = %6, %25
  %.0.sroa.phi.sroa.phi7895 = phi ptr [ %.0.sroa.phi.sroa.phi78.ph, %25 ], [ %.0.sroa.phi.sroa.gep79, %6 ]
  %.0.sroa.phi.sroa.phi93 = phi ptr [ %.0.sroa.phi.sroa.phi.ph, %25 ], [ %.0.sroa.phi.sroa.gep, %6 ]
  %27 = getelementptr inbounds nuw i8, ptr %0, i64 32
  br label %34

28:                                               ; preds = %25
  %29 = call i32 @nghttp2_stream_dep_find_ancestor(ptr noundef %.037.ph, ptr noundef %1) #20
  %.not70 = icmp eq i32 %29, 0
  br i1 %.not70, label %34, label %30

30:                                               ; preds = %28
  call void @nghttp2_stream_dep_remove_subtree(ptr noundef %.037.ph) #20
  %31 = getelementptr inbounds nuw i8, ptr %1, i64 96
  %32 = load ptr, ptr %31, align 8, !tbaa !119
  %33 = call i32 @nghttp2_stream_dep_add_subtree(ptr noundef %32, ptr noundef %.037.ph) #20
  %.not71 = icmp eq i32 %33, 0
  br i1 %.not71, label %34, label %50

34:                                               ; preds = %28, %30, %.thread
  %.0.sroa.phi.sroa.phi7894 = phi ptr [ %.0.sroa.phi.sroa.phi7895, %.thread ], [ %.0.sroa.phi.sroa.phi78.ph, %30 ], [ %.0.sroa.phi.sroa.phi78.ph, %28 ]
  %.0.sroa.phi.sroa.phi92 = phi ptr [ %.0.sroa.phi.sroa.phi93, %.thread ], [ %.0.sroa.phi.sroa.phi.ph, %30 ], [ %.0.sroa.phi.sroa.phi.ph, %28 ]
  %.1 = phi ptr [ %27, %.thread ], [ %.037.ph, %30 ], [ %.037.ph, %28 ]
  %35 = getelementptr inbounds nuw i8, ptr %1, i64 96
  %36 = load ptr, ptr %35, align 8, !tbaa !119
  %37 = icmp eq ptr %.1, %36
  br i1 %37, label %38, label %42

38:                                               ; preds = %34
  %39 = load i8, ptr %.0.sroa.phi.sroa.phi92, align 4, !tbaa !120
  %.not72 = icmp eq i8 %39, 0
  br i1 %.not72, label %40, label %42

40:                                               ; preds = %38
  %41 = load i32, ptr %.0.sroa.phi.sroa.phi7894, align 4, !tbaa !121
  call void @nghttp2_stream_change_weight(ptr noundef nonnull %1, i32 noundef %41) #20
  br label %50

42:                                               ; preds = %38, %34
  call void @nghttp2_stream_dep_remove_subtree(ptr noundef nonnull %1) #20
  %43 = load i32, ptr %.0.sroa.phi.sroa.phi7894, align 4, !tbaa !121
  %44 = getelementptr inbounds nuw i8, ptr %1, i64 192
  store i32 %43, ptr %44, align 8, !tbaa !122
  %45 = load i8, ptr %.0.sroa.phi.sroa.phi92, align 4, !tbaa !120
  %.not73 = icmp eq i8 %45, 0
  br i1 %.not73, label %48, label %46

46:                                               ; preds = %42
  %47 = call i32 @nghttp2_stream_dep_insert_subtree(ptr noundef %.1, ptr noundef nonnull %1) #20
  br label %50

48:                                               ; preds = %42
  %49 = call i32 @nghttp2_stream_dep_add_subtree(ptr noundef %.1, ptr noundef nonnull %1) #20
  br label %50

50:                                               ; preds = %46, %48, %30, %session_detect_idle_stream.exit.thread85, %3, %40
  %.039 = phi i32 [ 0, %40 ], [ 0, %3 ], [ -901, %session_detect_idle_stream.exit.thread85 ], [ %33, %30 ], [ %47, %46 ], [ %49, %48 ]
  call void @llvm.lifetime.end.p0(i64 12, ptr nonnull %4) #20
  ret i32 %.039
}